; Function Attrs: mustprogress nofree norecurse nosync nounwind null_pointer_is_valid sspstrong willreturn memory(none) uwtable
define internal noundef zeroext i1 @check_cmux(i32 noundef %0, i16 noundef zeroext %1) #7 {
  %3 = icmp eq i32 %0, 2
  br i1 %3, label %4, label %5

4:                                                ; preds = %2
  switch i16 %1, label %5 [
    i16 15679, label %8
    i16 63, label %8
    i16 61, label %8
  ]

5:                                                ; preds = %4, %2
  %6 = icmp eq i32 %0, 1
  %7 = icmp eq i16 %1, 58
  %or.cond8 = and i1 %6, %7
  br label %8

8:                                                ; preds = %5, %4, %4, %4
  %.0 = phi i1 [ true, %4 ], [ true, %4 ], [ true, %4 ], [ %or.cond8, %5 ]
  ret i1 %.0
}